; Function Attrs: nounwind uwtable
define range(i32 0, 2) i32 @dt_bauhaus_combobox_set_from_text(ptr noundef %0, ptr noundef %1) local_unnamed_addr #0 {
  %.not = icmp eq ptr %1, null
  br i1 %.not, label %.critedge, label %3

3:                                                ; preds = %2
  %4 = load atomic i64, ptr @dt_bh_get_type.static_g_define_type_id seq_cst, align 8
  %.not.i.i.i = icmp eq i64 %4, 0
  br i1 %.not.i.i.i, label %5, label %DT_BAUHAUS_WIDGET.exit.i

5:                                                ; preds = %3
  %6 = tail call i32 @g_once_init_enter(ptr noundef nonnull @dt_bh_get_type.static_g_define_type_id) #19
  %.not4.i.i.i = icmp eq i32 %6, 0
  br i1 %.not4.i.i.i, label %DT_BAUHAUS_WIDGET.exit.i, label %7

7:                                                ; preds = %5
  %8 = tail call fastcc i64 @dt_bh_get_type_once()
  tail call void @g_once_init_leave(ptr noundef nonnull @dt_bh_get_type.static_g_define_type_id, i64 noundef %8) #19
  br label %DT_BAUHAUS_WIDGET.exit.i

DT_BAUHAUS_WIDGET.exit.i:                         ; preds = %7, %5, %3
  %9 = load i64, ptr @dt_bh_get_type.static_g_define_type_id, align 8, !tbaa !6
  %10 = tail call ptr @g_type_check_instance_cast(ptr noundef %0, i64 noundef %9) #19
  %11 = getelementptr inbounds nuw i8, ptr %10, i64 40
  %12 = load i32, ptr %11, align 8, !tbaa !105
  %.not.i = icmp eq i32 %12, 2
  br i1 %.not.i, label %13, label %.critedge

13:                                               ; preds = %DT_BAUHAUS_WIDGET.exit.i
  %14 = getelementptr inbounds nuw i8, ptr %10, i64 408
  %15 = load i32, ptr %14, align 8, !tbaa !137
  %16 = getelementptr inbounds nuw i8, ptr %10, i64 440
  %17 = load ptr, ptr %16, align 8, !tbaa !128
  %18 = getelementptr inbounds nuw i8, ptr %17, i64 8
  %19 = load i32, ptr %18, align 8, !tbaa !131
  %.not8.i = icmp ult i32 %15, %19
  br i1 %.not8.i, label %.lr.ph, label %20

20:                                               ; preds = %13
  store i32 -1, ptr %14, align 8, !tbaa !137
  br label %.lr.ph

.lr.ph:                                           ; preds = %20, %13
  %21 = getelementptr inbounds nuw i8, ptr %10, i64 440
  %22 = load ptr, ptr %21, align 8, !tbaa !128
  %23 = getelementptr inbounds nuw i8, ptr %22, i64 8
  %24 = load i32, ptr %23, align 8, !tbaa !131
  %.not28 = icmp eq i32 %24, 0
  br i1 %.not28, label %.critedge, label %.lr.ph27

.lr.ph27:                                         ; preds = %.lr.ph, %41
  %indvars.iv = phi i64 [ %indvars.iv.next, %41 ], [ 0, %.lr.ph ]
  %25 = phi ptr [ %42, %41 ], [ %22, %.lr.ph ]
  %.val.val = load ptr, ptr %25, align 8, !tbaa !133
  %26 = getelementptr inbounds nuw ptr, ptr %.val.val, i64 %indvars.iv
  %27 = load ptr, ptr %26, align 8, !tbaa !134
  %28 = load ptr, ptr %27, align 8, !tbaa !149
  %29 = tail call i32 @g_strcmp0(ptr noundef %28, ptr noundef nonnull %1) #19
  %.not17 = icmp eq i32 %29, 0
  br i1 %.not17, label %.split, label %41

.split:                                           ; preds = %.lr.ph27
  %30 = trunc nuw nsw i64 %indvars.iv to i32
  %31 = load atomic i64, ptr @dt_bh_get_type.static_g_define_type_id seq_cst, align 8
  %.not.i.i.i18 = icmp eq i64 %31, 0
  br i1 %.not.i.i.i18, label %32, label %DT_BAUHAUS_WIDGET.exit.i19

32:                                               ; preds = %.split
  %33 = tail call i32 @g_once_init_enter(ptr noundef nonnull @dt_bh_get_type.static_g_define_type_id) #19
  %.not4.i.i.i21 = icmp eq i32 %33, 0
  br i1 %.not4.i.i.i21, label %DT_BAUHAUS_WIDGET.exit.i19, label %34

34:                                               ; preds = %32
  %35 = tail call fastcc i64 @dt_bh_get_type_once()
  tail call void @g_once_init_leave(ptr noundef nonnull @dt_bh_get_type.static_g_define_type_id, i64 noundef %35) #19
  br label %DT_BAUHAUS_WIDGET.exit.i19

DT_BAUHAUS_WIDGET.exit.i19:                       ; preds = %34, %32, %.split
  %36 = load i64, ptr @dt_bh_get_type.static_g_define_type_id, align 8, !tbaa !6
  %37 = tail call ptr @g_type_check_instance_cast(ptr noundef %0, i64 noundef %36) #19
  %38 = getelementptr inbounds nuw i8, ptr %37, i64 40
  %39 = load i32, ptr %38, align 8, !tbaa !105
  %.not.i20 = icmp eq i32 %39, 2
  br i1 %.not.i20, label %40, label %.critedge

40:                                               ; preds = %DT_BAUHAUS_WIDGET.exit.i19
  tail call fastcc void @_combobox_set(ptr noundef nonnull %37, i32 noundef %30, i32 noundef 0)
  br label %.critedge

41:                                               ; preds = %.lr.ph27
  %indvars.iv.next = add nuw nsw i64 %indvars.iv, 1
  %42 = load ptr, ptr %21, align 8, !tbaa !128
  %43 = getelementptr inbounds nuw i8, ptr %42, i64 8
  %44 = load i32, ptr %43, align 8, !tbaa !131
  %45 = zext i32 %44 to i64
  %46 = icmp samesign ult i64 %indvars.iv.next, %45
  br i1 %46, label %.lr.ph27, label %.critedge

.critedge:                                        ; preds = %41, %DT_BAUHAUS_WIDGET.exit.i, %.lr.ph, %40, %DT_BAUHAUS_WIDGET.exit.i19, %2
  %.013 = phi i32 [ 0, %2 ], [ 1, %40 ], [ 1, %DT_BAUHAUS_WIDGET.exit.i19 ], [ 0, %.lr.ph ], [ 0, %DT_BAUHAUS_WIDGET.exit.i ], [ 0, %41 ]
  ret i32 %.013
}